(lp1
S''
aS'jacobswoude'
p2
aS'nuenen ca'
p3
aS'roggel en neer'
p4
aS'hengelo (o.)'
p5
aS'noorder-koggenland'
p6
aS'haarle gem hellendoorn'
p7
aS'0'
aS'elders buiten ned'
p8
aS'nieuwerkerk ad ijssel'
p9
aS'geen vaste woonplaats'
p10
aS'gaasterlan-sleat'
p11
aS'eede zld'
p12
aS'haarlemmerliede ca'
p13
aS'westerhaar-vriezenv wijk'
p14
aS'ee'
p15
aS'heusden gem heusden'
p16
aS'alteveer gem de wolden'
p17
aS'boarnsterhim'
p18
aS'wunseradiel'
p19
aS'mook en middelaar'
p20
aS'nijefurd'
p21
aS'skarsterl\xc3\xa2n'
p22
aS'nyefurd'
p23
aS'1.900'
p24
aS'rottum fr'
p25
aS'nieuwdorp zld'
p26
aS'oosterhout gld'
p27
a.