(lp1
S''
aS'oudega gem smallingerlnd'
p2
aS'jacobswoude'
p3
aS'nuenen ca'
p4
aS'roggel en neer'
p5
aS'hengelo (o.)'
p6
aS'noorder-koggenland'
p7
aS'haarle gem hellendoorn'
p8
aS'0'
aS'kollumerland ca'
p9
aS'elders buiten ned'
p10
aS'nieuwerkerk ad ijssel'
p11
aS'geen vaste woonplaats'
p12
aS'gaasterlan-sleat'
p13
aS'geesteren gld'
p14
aS'laren gld'
p15
aS'de friese meren'
p16
aS'voorst gem voorst'
p17
aS'wilp gld'
p18
aS'ede gld'
p19
aS'well gld'
p20
aS'rossum gld'
p21
aS'eede zld'
p22
aS'haarlemmerliede ca'
p23
aS'dantumadeel'
p24
aS'westerhaar-vriezenv wijk'
p25
aS'oostwold gem oldambt'
p26
aS'afferden gld'
p27
aS'middelburg (z.)'
p28
aS'ee'
p29
aS'aalst gld'
p30
aS'menaldumadeel'
p31
aS'oostwold gem leek'
p32
aS'spijk gld'
p33
aS'heusden gem heusden'
p34
aS'nijkerk gld'
p35
aS'alteveer gem de wolden'
p36
aS'heusden gem asten'
p37
aS'spijk gem lingewaal'
p38
aS'boarnsterhim'
p39
aS'velp gld'
p40
aS'alphen gld'
p41
aS'etten gld'
p42
aS'wunseradiel'
p43
aS's-gravenhage (gemeente)'
p44
aS'stein (l.)'
p45
aS'hedel'
p46
aS'oud-vossemeer'
p47
aS'loosbroek'
p48
aS'hegelsom'
p49
aS'dinteloord'
p50
aS'beek gem montferland'
p51
aS'steyl'
p52
aS'kerkwijk'
p53
aS'oldelamer'
p54
aS'alblasserdam'
p55
aS'spijk gn'
p56
aS'oudelande'
p57
aS'hoogezand-sappemeer'
p58
aS'kollum'
p59
aS'sint hubert'
p60
aS'soesterberg'
p61
aS'lisse'
p62
aS'lisserbroek'
p63
aS'mook en middelaar'
p64
aS'est'
p65
aS'koarnjum'
p66
aS'nijefurd'
p67
aS'wieringermeer'
p68
aS'zierikzee'
p69
aS'hilaard'
p70
aS'de mortel'
p71
aS'wijchen'
p72
aS'woubrugge'
p73
aS'haarsteeg'
p74
aS'nistelrode'
p75
aS'echt'
p76
aS'hoornaar'
p77
aS'hoorn terschelling'
p78
aS'zederik'
p79
aS'bussum'
p80
aS'noordscheschut'
p81
aS'cromvoirt'
p82
aS'kolhorn'
p83
aS'egmond aan zee'
p84
aS'bakel'
p85
aS'oostflakkee'
p86
aS'kortgene'
p87
aS'alkmaar'
p88
aS'winssen'
p89
aS'deventer'
p90
aS'skarsterl\xc3\xa2n'
p91
aS'boekel'
p92
aS'nieuwerkerk aan den ijssel'
p93
aS'jonkerslan'
p94
aS'maasdijk'
p95
aS'zoelmond'
p96
aS'zwanenburg'
p97
aS'puiflijk'
p98
aS'westknollendam'
p99
aS'zaandam'
p100
aS'sint jansteen'
p101
aS'elst ut'
p102
aS'dronryp'
p103
aS'ameland'
p104
aS'nieuw balinge'
p105
aS'schipluiden'
p106
aS'nyefurd'
p107
aS'beusichem'
p108
aS'hoensbroek'
p109
aS'workum'
p110
aS'winterswijk miste'
p111
aS'limbricht'
p112
aS'groot-ammers'
p113
aS'oosterhesselen'
p114
aS"'s-gravenpolder"
p115
aS'sint jansklooster'
p116
aS'kruiningen'
p117
aS'winterswijk huppel'
p118
aS'heijningen'
p119
aS'groningen'
p120
aS'wons'
p121
aS'drachtstercompagnie'
p122
aS'1.900'
p123
aS'berg en terblijt'
p124
aS'noord-beveland'
p125
aS'opheusden'
p126
aS'lemelerveld'
p127
aS'ferwoude'
p128
aS'huis ter heide ut'
p129
aS'zuiderwoude'
p130
aS'emmen'
p131
aS'meerstad'
p132
aS'rottum fr'
p133
aS'marum'
p134
aS'velddriel'
p135
aS'st.-jacobiparochie'
p136
aS'babylonienbroek'
p137
aS'vollenhove'
p138
aS'gemonde'
p139
aS'hoogland'
p140
aS'monster'
p141
aS'gorredijk'
p142
aS'olst-wijhe'
p143
aS'zoutelande'
p144
aS'paesens'
p145
aS'hengelo gld'
p146
aS'ane'
p147
aS'stokkum'
p148
aS'amstelveen'
p149
aS'oudega sudwest-fryslan'
p150
aS'gaanderen'
p151
aS'hijken'
p152
aS'melderslo'
p153
aS'ossendrecht'
p154
aS'duiven'
p155
aS'molkwerum'
p156
aS'nederasselt'
p157
aS'dinxperlo'
p158
aS'nieuwdorp zld'
p159
aS'noordeloos'
p160
aS'kwadijk'
p161
aS'geffen'
p162
aS'munstergeleen'
p163
aS'neerkant'
p164
aS'harskamp'
p165
aS'ilpendam'
p166
aS'oosterhout gld'
p167
aS'opsterland'
p168
aS'ysbrechtum'
p169
aS'weidum'
p170
a.