(lp1
S''
aS'oudega gem smallingerlnd'
p2
aS'jacobswoude'
p3
aS'nuenen ca'
p4
aS'roggel en neer'
p5
aS'hengelo (o.)'
p6
aS'noorder-koggenland'
p7
aS'haarle gem hellendoorn'
p8
aS'0'
aS'kollumerland ca'
p9
aS'elders buiten ned'
p10
aS'nieuwerkerk ad ijssel'
p11
aS'geen vaste woonplaats'
p12
aS'gaasterlan-sleat'
p13
aS'geesteren gld'
p14
aS'laren gld'
p15
aS'voorst gem voorst'
p16
aS'wilp gld'
p17
aS'ede gld'
p18
aS'rossum gld'
p19
aS'eede zld'
p20
aS'haarlemmerliede ca'
p21
aS'dantumadeel'
p22
aS'westerhaar-vriezenv wijk'
p23
aS'oostwold gem oldambt'
p24
aS'afferden gld'
p25
aS'middelburg (z.)'
p26
aS'ee'
p27
aS'aalst gld'
p28
aS'menaldumadeel'
p29
aS'oostwold gem leek'
p30
aS'spijk gld'
p31
aS'heusden gem heusden'
p32
aS'nijkerk gld'
p33
aS'alteveer gem de wolden'
p34
aS'heusden gem asten'
p35
aS'spijk gem lingewaal'
p36
aS'boarnsterhim'
p37
aS'velp gld'
p38
aS'alphen gld'
p39
aS'etten gld'
p40
aS'wunseradiel'
p41
aS'beek gem montferland'
p42
aS'nyefurd'
p43
aS'nieuwdorp zld'
p44
aS'oosterhout gld'
p45
a.